target datalayout = "e-m:e-p270:32:32-p271:32:32-p272:64:64-i64:64-i128:128-f80:128-n8:16:32:64-S128"
target triple = "x86_64-pc-linux-gnu"

%struct.lean_closure_object = type { %struct.lean_object, ptr, i16, i16, [0 x ptr] }
%struct.lean_object = type { i32, i32 }

; Function Attrs: inlinehint mustprogress nounwind uwtable
define internal noundef i64 @_ZL10lean_alignmm(i64 noundef %0, i64 noundef %1) #6 {
  %3 = alloca i64, align 8
  %4 = alloca i64, align 8
  store i64 %0, ptr %3, align 8, !tbaa !114
  store i64 %1, ptr %4, align 8, !tbaa !114
  %5 = load i64, ptr %3, align 8, !tbaa !114
  %6 = load i64, ptr %4, align 8, !tbaa !114
  %7 = udiv i64 %5, %6
  %8 = load i64, ptr %4, align 8, !tbaa !114
  %9 = mul i64 %7, %8
  %10 = load i64, ptr %4, align 8, !tbaa !114
  %11 = load i64, ptr %3, align 8, !tbaa !114
  %12 = load i64, ptr %4, align 8, !tbaa !114
  %13 = urem i64 %11, %12
  %14 = icmp ne i64 %13, 0
  %15 = zext i1 %14 to i64
  %16 = mul i64 %10, %15
  %17 = add i64 %9, %16
  ret i64 %17
}

; Function Attrs: inlinehint mustprogress uwtable
define internal void @_ZL12lean_inc_refP11lean_object(ptr noundef %0) #5 {
  %2 = alloca ptr, align 8
  store ptr %0, ptr %2, align 8, !tbaa !3
  %3 = load ptr, ptr %2, align 8, !tbaa !3
  %4 = call noundef zeroext i1 @_ZL10lean_is_stP11lean_object(ptr noundef %3)
  %5 = zext i1 %4 to i64
  %6 = call i64 @llvm.expect.i64(i64 %5, i64 1)
  %7 = icmp ne i64 %6, 0
  br i1 %7, label %8, label %13

8:                                                ; preds = %1
  %9 = load ptr, ptr %2, align 8, !tbaa !3
  %10 = getelementptr inbounds nuw %struct.lean_object, ptr %9, i32 0, i32 0
  %11 = load i32, ptr %10, align 4, !tbaa !24
  %12 = add nsw i32 %11, 1
  store i32 %12, ptr %10, align 4, !tbaa !24
  br label %21

13:                                               ; preds = %1
  %14 = load ptr, ptr %2, align 8, !tbaa !3
  %15 = getelementptr inbounds nuw %struct.lean_object, ptr %14, i32 0, i32 0
  %16 = load i32, ptr %15, align 4, !tbaa !24
  %17 = icmp ne i32 %16, 0
  br i1 %17, label %18, label %20

18:                                               ; preds = %13
  %19 = load ptr, ptr %2, align 8, !tbaa !3
  call void @lean_inc_ref_cold(ptr noundef %19)
  br label %20

20:                                               ; preds = %18, %13
  br label %21

21:                                               ; preds = %20, %8
  ret void
}

; Function Attrs: alwaysinline mustprogress nounwind uwtable
define internal noundef zeroext i1 @_ZL14lean_is_scalarP11lean_object(ptr noundef %0) #2 {
  %2 = alloca ptr, align 8
  store ptr %0, ptr %2, align 8, !tbaa !3
  %3 = load ptr, ptr %2, align 8, !tbaa !3
  %4 = ptrtoint ptr %3 to i64
  %5 = and i64 %4, 1
  %6 = icmp eq i64 %5, 1
  ret i1 %6
}

; Function Attrs: inlinehint mustprogress nounwind uwtable
define internal noundef zeroext i1 @_ZL10lean_is_stP11lean_object(ptr noundef %0) #6 {
  %2 = alloca ptr, align 8
  store ptr %0, ptr %2, align 8, !tbaa !3
  %3 = load ptr, ptr %2, align 8, !tbaa !3
  %4 = getelementptr inbounds nuw %struct.lean_object, ptr %3, i32 0, i32 0
  %5 = load i32, ptr %4, align 4, !tbaa !24
  %6 = icmp sgt i32 %5, 0
  ret i1 %6
}

; Function Attrs: inlinehint mustprogress nounwind uwtable
define internal void @_ZL18lean_set_st_headerP11lean_objectjj(ptr noundef %0, i32 noundef %1, i32 noundef %2) #6 {
  %4 = alloca ptr, align 8
  %5 = alloca i32, align 4
  %6 = alloca i32, align 4
  store ptr %0, ptr %4, align 8, !tbaa !3
  store i32 %1, ptr %5, align 4, !tbaa !7
  store i32 %2, ptr %6, align 4, !tbaa !7
  %7 = load ptr, ptr %4, align 8, !tbaa !3
  %8 = getelementptr inbounds nuw %struct.lean_object, ptr %7, i32 0, i32 0
  store i32 1, ptr %8, align 4, !tbaa !24
  %9 = load i32, ptr %5, align 4, !tbaa !7
  %10 = load ptr, ptr %4, align 8, !tbaa !3
  %11 = getelementptr inbounds nuw %struct.lean_object, ptr %10, i32 0, i32 1
  %12 = load i32, ptr %11, align 4
  %13 = and i32 %9, 255
  %14 = shl i32 %13, 24
  %15 = and i32 %12, 16777215
  %16 = or i32 %15, %14
  store i32 %16, ptr %11, align 4
  %17 = load i32, ptr %6, align 4, !tbaa !7
  %18 = load ptr, ptr %4, align 8, !tbaa !3
  %19 = getelementptr inbounds nuw %struct.lean_object, ptr %18, i32 0, i32 1
  %20 = load i32, ptr %19, align 4
  %21 = and i32 %17, 255
  %22 = shl i32 %21, 16
  %23 = and i32 %20, -16711681
  %24 = or i32 %23, %22
  store i32 %24, ptr %19, align 4
  ret void
}

; Function Attrs: inlinehint mustprogress uwtable
define internal noundef ptr @_ZL23lean_alloc_small_objectj(i32 noundef %0) #5 {
  %2 = alloca i32, align 4
  %3 = alloca ptr, align 8
  %4 = alloca ptr, align 8
  store i32 %0, ptr %2, align 4, !tbaa !7
  call void @lean_inc_heartbeat()
  %5 = load i32, ptr %2, align 4, !tbaa !7
  %6 = zext i32 %5 to i64
  %7 = call noundef i64 @_ZL10lean_alignmm(i64 noundef %6, i64 noundef 8)
  %8 = trunc i64 %7 to i32
  store i32 %8, ptr %2, align 4, !tbaa !7
  call void @llvm.lifetime.start.p0(i64 8, ptr %3) #13
  %9 = load i32, ptr %2, align 4, !tbaa !7
  %10 = zext i32 %9 to i64
  %11 = call noalias ptr @mi_malloc_small(i64 noundef %10) #13
  store ptr %11, ptr %3, align 8, !tbaa !3
  %12 = load ptr, ptr %3, align 8, !tbaa !3
  %13 = icmp eq ptr %12, null
  br i1 %13, label %14, label %15

14:                                               ; preds = %1
  call void @lean_internal_panic_out_of_memory() #14
  unreachable

15:                                               ; preds = %1
  call void @llvm.lifetime.start.p0(i64 8, ptr %4) #13
  %16 = load ptr, ptr %3, align 8, !tbaa !3
  store ptr %16, ptr %4, align 8, !tbaa !3
  %17 = load i32, ptr %2, align 4, !tbaa !7
  %18 = load ptr, ptr %4, align 8, !tbaa !3
  %19 = getelementptr inbounds nuw %struct.lean_object, ptr %18, i32 0, i32 1
  %20 = load i32, ptr %19, align 4
  %21 = and i32 %17, 65535
  %22 = and i32 %20, -65536
  %23 = or i32 %22, %21
  store i32 %23, ptr %19, align 4
  %24 = load ptr, ptr %4, align 8, !tbaa !3
  call void @llvm.lifetime.end.p0(i64 8, ptr %4) #13
  call void @llvm.lifetime.end.p0(i64 8, ptr %3) #13
  ret ptr %24
}

; Function Attrs: inlinehint mustprogress nounwind uwtable
define internal noundef ptr @_ZL15lean_to_closureP11lean_object(ptr noundef %0) #6 {
  %2 = alloca ptr, align 8
  store ptr %0, ptr %2, align 8, !tbaa !3
  %3 = load ptr, ptr %2, align 8, !tbaa !3
  ret ptr %3
}

; Function Attrs: inlinehint mustprogress nounwind uwtable
define internal void @_ZL22lean_free_small_objectP11lean_object(ptr noundef %0) #6 {
  %2 = alloca ptr, align 8
  store ptr %0, ptr %2, align 8, !tbaa !3
  %3 = load ptr, ptr %2, align 8, !tbaa !3
  call void @mi_free(ptr noundef %3) #13
  ret void
}

; Function Attrs: alwaysinline mustprogress uwtable
define internal void @_ZL12lean_dec_refP11lean_object(ptr noundef %0) #3 {
  %2 = alloca ptr, align 8
  store ptr %0, ptr %2, align 8, !tbaa !3
  %3 = load ptr, ptr %2, align 8, !tbaa !3
  %4 = getelementptr inbounds nuw %struct.lean_object, ptr %3, i32 0, i32 0
  %5 = load i32, ptr %4, align 4, !tbaa !24
  %6 = icmp sgt i32 %5, 1
  %7 = zext i1 %6 to i64
  %8 = call i64 @llvm.expect.i64(i64 %7, i64 1)
  %9 = icmp ne i64 %8, 0
  br i1 %9, label %10, label %15

10:                                               ; preds = %1
  %11 = load ptr, ptr %2, align 8, !tbaa !3
  %12 = getelementptr inbounds nuw %struct.lean_object, ptr %11, i32 0, i32 0
  %13 = load i32, ptr %12, align 4, !tbaa !24
  %14 = add nsw i32 %13, -1
  store i32 %14, ptr %12, align 4, !tbaa !24
  br label %23

15:                                               ; preds = %1
  %16 = load ptr, ptr %2, align 8, !tbaa !3
  %17 = getelementptr inbounds nuw %struct.lean_object, ptr %16, i32 0, i32 0
  %18 = load i32, ptr %17, align 4, !tbaa !24
  %19 = icmp ne i32 %18, 0
  br i1 %19, label %20, label %22

20:                                               ; preds = %15
  %21 = load ptr, ptr %2, align 8, !tbaa !3
  call void @lean_dec_ref_cold(ptr noundef %21)
  br label %22

22:                                               ; preds = %20, %15
  br label %23

23:                                               ; preds = %22, %10
  ret void
}

; Function Attrs: alwaysinline mustprogress uwtable
define internal void @_ZL8lean_incP11lean_object(ptr noundef %0) #3 {
  %2 = alloca ptr, align 8
  store ptr %0, ptr %2, align 8, !tbaa !3
  %3 = load ptr, ptr %2, align 8, !tbaa !3
  %4 = call noundef zeroext i1 @_ZL14lean_is_scalarP11lean_object(ptr noundef %3)
  br i1 %4, label %7, label %5

5:                                                ; preds = %1
  %6 = load ptr, ptr %2, align 8, !tbaa !3
  call void @_ZL12lean_inc_refP11lean_object(ptr noundef %6)
  br label %7

7:                                                ; preds = %5, %1
  ret void
}

; Function Attrs: inlinehint mustprogress uwtable
define internal noundef zeroext i1 @_ZL17lean_is_exclusiveP11lean_object(ptr noundef %0) #5 {
  %2 = alloca i1, align 1
  %3 = alloca ptr, align 8
  store ptr %0, ptr %3, align 8, !tbaa !3
  %4 = load ptr, ptr %3, align 8, !tbaa !3
  %5 = call noundef zeroext i1 @_ZL10lean_is_stP11lean_object(ptr noundef %4)
  %6 = zext i1 %5 to i64
  %7 = call i64 @llvm.expect.i64(i64 %6, i64 1)
  %8 = icmp ne i64 %7, 0
  br i1 %8, label %9, label %14

9:                                                ; preds = %1
  %10 = load ptr, ptr %3, align 8, !tbaa !3
  %11 = getelementptr inbounds nuw %struct.lean_object, ptr %10, i32 0, i32 0
  %12 = load i32, ptr %11, align 4, !tbaa !24
  %13 = icmp eq i32 %12, 1
  store i1 %13, ptr %2, align 1
  br label %15

14:                                               ; preds = %1
  store i1 false, ptr %2, align 1
  br label %15

15:                                               ; preds = %14, %9
  %16 = load i1, ptr %2, align 1
  ret i1 %16
}

; Function Attrs: inlinehint mustprogress nounwind uwtable
define internal noundef ptr @_ZL21lean_closure_arg_cptrP11lean_object(ptr noundef %0) #6 {
  %2 = alloca ptr, align 8
  store ptr %0, ptr %2, align 8, !tbaa !3
  %3 = load ptr, ptr %2, align 8, !tbaa !3
  %4 = call noundef ptr @_ZL15lean_to_closureP11lean_object(ptr noundef %3)
  %5 = getelementptr inbounds nuw %struct.lean_closure_object, ptr %4, i32 0, i32 4
  %6 = getelementptr inbounds [0 x ptr], ptr %5, i64 0, i64 0
  ret ptr %6
}

; Function Attrs: inlinehint mustprogress uwtable
define internal noundef ptr @_ZL18lean_alloc_closurePvjj(ptr noundef %0, i32 noundef %1, i32 noundef %2) #5 {
  %4 = alloca ptr, align 8
  %5 = alloca i32, align 4
  %6 = alloca i32, align 4
  %7 = alloca ptr, align 8
  store ptr %0, ptr %4, align 8, !tbaa !3
  store i32 %1, ptr %5, align 4, !tbaa !7
  store i32 %2, ptr %6, align 4, !tbaa !7
  call void @llvm.lifetime.start.p0(i64 8, ptr %7) #13
  %8 = load i32, ptr %6, align 4, !tbaa !7
  %9 = zext i32 %8 to i64
  %10 = mul i64 8, %9
  %11 = add i64 24, %10
  %12 = trunc i64 %11 to i32
  %13 = call noundef ptr @_ZL23lean_alloc_small_objectj(i32 noundef %12)
  store ptr %13, ptr %7, align 8, !tbaa !3
  %14 = load ptr, ptr %7, align 8, !tbaa !3
  call void @_ZL18lean_set_st_headerP11lean_objectjj(ptr noundef %14, i32 noundef 245, i32 noundef 0)
  %15 = load ptr, ptr %4, align 8, !tbaa !3
  %16 = load ptr, ptr %7, align 8, !tbaa !3
  %17 = getelementptr inbounds nuw %struct.lean_closure_object, ptr %16, i32 0, i32 1
  store ptr %15, ptr %17, align 8, !tbaa !3
  %18 = load i32, ptr %5, align 4, !tbaa !7
  %19 = trunc i32 %18 to i16
  %20 = load ptr, ptr %7, align 8, !tbaa !3
  %21 = getelementptr inbounds nuw %struct.lean_closure_object, ptr %20, i32 0, i32 2
  store i16 %19, ptr %21, align 8, !tbaa !22
  %22 = load i32, ptr %6, align 4, !tbaa !7
  %23 = trunc i32 %22 to i16
  %24 = load ptr, ptr %7, align 8, !tbaa !3
  %25 = getelementptr inbounds nuw %struct.lean_closure_object, ptr %24, i32 0, i32 3
  store i16 %23, ptr %25, align 2, !tbaa !22
  %26 = load ptr, ptr %7, align 8, !tbaa !3
  call void @llvm.lifetime.end.p0(i64 8, ptr %7) #13
  ret ptr %26
}

; Function Attrs: inlinehint mustprogress nounwind uwtable
define internal noundef ptr @_ZL16lean_closure_funP11lean_object(ptr noundef %0) #6 {
  %2 = alloca ptr, align 8
  store ptr %0, ptr %2, align 8, !tbaa !3
  %3 = load ptr, ptr %2, align 8, !tbaa !3
  %4 = call noundef ptr @_ZL15lean_to_closureP11lean_object(ptr noundef %3)
  %5 = getelementptr inbounds nuw %struct.lean_closure_object, ptr %4, i32 0, i32 1
  %6 = load ptr, ptr %5, align 8, !tbaa !3
  ret ptr %6
}

; Function Attrs: inlinehint mustprogress nounwind uwtable
define internal noundef i32 @_ZL22lean_closure_num_fixedP11lean_object(ptr noundef %0) #6 {
  %2 = alloca ptr, align 8
  store ptr %0, ptr %2, align 8, !tbaa !3
  %3 = load ptr, ptr %2, align 8, !tbaa !3
  %4 = call noundef ptr @_ZL15lean_to_closureP11lean_object(ptr noundef %3)
  %5 = getelementptr inbounds nuw %struct.lean_closure_object, ptr %4, i32 0, i32 3
  %6 = load i16, ptr %5, align 2, !tbaa !22
  %7 = zext i16 %6 to i32
  ret i32 %7
}

; Function Attrs: inlinehint mustprogress uwtable
define internal noundef i32 @_ZL18lean_closure_arityP11lean_object(ptr noundef %0) #5 {
  %2 = alloca ptr, align 8
  store ptr %0, ptr %2, align 8, !tbaa !3
  %3 = load ptr, ptr %2, align 8, !tbaa !3
  %4 = call noundef ptr @_ZL15lean_to_closureP11lean_object(ptr noundef %3)
  %5 = getelementptr inbounds nuw %struct.lean_closure_object, ptr %4, i32 0, i32 2
  %6 = load i16, ptr %5, align 8, !tbaa !22
  %7 = zext i16 %6 to i32
  ret i32 %7
}

; Function Attrs: mustprogress uwtable
define internal noundef ptr @_ZN4leanL8fix_argsEP11lean_objectjPKS1_(ptr noundef %0, i32 noundef %1, ptr noundef %2) #0 {
  %4 = alloca ptr, align 8
  %5 = alloca i32, align 4
  %6 = alloca ptr, align 8
  %7 = alloca i32, align 4
  %8 = alloca i32, align 4
  %9 = alloca i32, align 4
  %10 = alloca ptr, align 8
  %11 = alloca ptr, align 8
  %12 = alloca ptr, align 8
  %13 = alloca i32, align 4
  %14 = alloca i32, align 4
  %15 = alloca i32, align 4
  store ptr %0, ptr %4, align 8, !tbaa !3
  store i32 %1, ptr %5, align 4, !tbaa !7
  store ptr %2, ptr %6, align 8, !tbaa !9
  call void @llvm.lifetime.start.p0(i64 4, ptr %7) #13
  %16 = load ptr, ptr %4, align 8, !tbaa !3
  %17 = call noundef i32 @_ZL18lean_closure_arityP11lean_object(ptr noundef %16)
  store i32 %17, ptr %7, align 4, !tbaa !7
  call void @llvm.lifetime.start.p0(i64 4, ptr %8) #13
  %18 = load ptr, ptr %4, align 8, !tbaa !3
  %19 = call noundef i32 @_ZL22lean_closure_num_fixedP11lean_object(ptr noundef %18)
  store i32 %19, ptr %8, align 4, !tbaa !7
  call void @llvm.lifetime.start.p0(i64 4, ptr %9) #13
  %20 = load i32, ptr %8, align 4, !tbaa !7
  %21 = load i32, ptr %5, align 4, !tbaa !7
  %22 = add i32 %20, %21
  store i32 %22, ptr %9, align 4, !tbaa !7
  call void @llvm.lifetime.start.p0(i64 8, ptr %10) #13
  %23 = load ptr, ptr %4, align 8, !tbaa !3
  %24 = call noundef ptr @_ZL16lean_closure_funP11lean_object(ptr noundef %23)
  %25 = load i32, ptr %7, align 4, !tbaa !7
  %26 = load i32, ptr %9, align 4, !tbaa !7
  %27 = call noundef ptr @_ZL18lean_alloc_closurePvjj(ptr noundef %24, i32 noundef %25, i32 noundef %26)
  store ptr %27, ptr %10, align 8, !tbaa !3
  call void @llvm.lifetime.start.p0(i64 8, ptr %11) #13
  %28 = load ptr, ptr %4, align 8, !tbaa !3
  %29 = call noundef ptr @_ZL21lean_closure_arg_cptrP11lean_object(ptr noundef %28)
  store ptr %29, ptr %11, align 8, !tbaa !9
  call void @llvm.lifetime.start.p0(i64 8, ptr %12) #13
  %30 = load ptr, ptr %10, align 8, !tbaa !3
  %31 = call noundef ptr @_ZL21lean_closure_arg_cptrP11lean_object(ptr noundef %30)
  store ptr %31, ptr %12, align 8, !tbaa !9
  %32 = load ptr, ptr %4, align 8, !tbaa !3
  %33 = call noundef zeroext i1 @_ZL17lean_is_exclusiveP11lean_object(ptr noundef %32)
  br i1 %33, label %55, label %34

34:                                               ; preds = %3
  call void @llvm.lifetime.start.p0(i64 4, ptr %13) #13
  store i32 0, ptr %13, align 4, !tbaa !7
  br label %35

35:                                               ; preds = %46, %34
  %36 = load i32, ptr %13, align 4, !tbaa !7
  %37 = load i32, ptr %8, align 4, !tbaa !7
  %38 = icmp ult i32 %36, %37
  br i1 %38, label %40, label %39

39:                                               ; preds = %35
  call void @llvm.lifetime.end.p0(i64 4, ptr %13) #13
  br label %53

40:                                               ; preds = %35
  %41 = load ptr, ptr %11, align 8, !tbaa !9
  %42 = load ptr, ptr %41, align 8, !tbaa !3
  %43 = load ptr, ptr %12, align 8, !tbaa !9
  store ptr %42, ptr %43, align 8, !tbaa !3
  %44 = load ptr, ptr %12, align 8, !tbaa !9
  %45 = load ptr, ptr %44, align 8, !tbaa !3
  call void @_ZL8lean_incP11lean_object(ptr noundef %45)
  br label %46

46:                                               ; preds = %40
  %47 = load i32, ptr %13, align 4, !tbaa !7
  %48 = add i32 %47, 1
  store i32 %48, ptr %13, align 4, !tbaa !7
  %49 = load ptr, ptr %11, align 8, !tbaa !9
  %50 = getelementptr inbounds nuw ptr, ptr %49, i32 1
  store ptr %50, ptr %11, align 8, !tbaa !9
  %51 = load ptr, ptr %12, align 8, !tbaa !9
  %52 = getelementptr inbounds nuw ptr, ptr %51, i32 1
  store ptr %52, ptr %12, align 8, !tbaa !9
  br label %35, !llvm.loop !93

53:                                               ; preds = %39
  %54 = load ptr, ptr %4, align 8, !tbaa !3
  call void @_ZL12lean_dec_refP11lean_object(ptr noundef %54)
  br label %74

55:                                               ; preds = %3
  call void @llvm.lifetime.start.p0(i64 4, ptr %14) #13
  store i32 0, ptr %14, align 4, !tbaa !7
  br label %56

56:                                               ; preds = %65, %55
  %57 = load i32, ptr %14, align 4, !tbaa !7
  %58 = load i32, ptr %8, align 4, !tbaa !7
  %59 = icmp ult i32 %57, %58
  br i1 %59, label %61, label %60

60:                                               ; preds = %56
  call void @llvm.lifetime.end.p0(i64 4, ptr %14) #13
  br label %72

61:                                               ; preds = %56
  %62 = load ptr, ptr %11, align 8, !tbaa !9
  %63 = load ptr, ptr %62, align 8, !tbaa !3
  %64 = load ptr, ptr %12, align 8, !tbaa !9
  store ptr %63, ptr %64, align 8, !tbaa !3
  br label %65

65:                                               ; preds = %61
  %66 = load i32, ptr %14, align 4, !tbaa !7
  %67 = add i32 %66, 1
  store i32 %67, ptr %14, align 4, !tbaa !7
  %68 = load ptr, ptr %11, align 8, !tbaa !9
  %69 = getelementptr inbounds nuw ptr, ptr %68, i32 1
  store ptr %69, ptr %11, align 8, !tbaa !9
  %70 = load ptr, ptr %12, align 8, !tbaa !9
  %71 = getelementptr inbounds nuw ptr, ptr %70, i32 1
  store ptr %71, ptr %12, align 8, !tbaa !9
  br label %56, !llvm.loop !94

72:                                               ; preds = %60
  %73 = load ptr, ptr %4, align 8, !tbaa !3
  call void @_ZL22lean_free_small_objectP11lean_object(ptr noundef %73)
  br label %74

74:                                               ; preds = %72, %53
  call void @llvm.lifetime.start.p0(i64 4, ptr %15) #13
  store i32 0, ptr %15, align 4, !tbaa !7
  br label %75

75:                                               ; preds = %84, %74
  %76 = load i32, ptr %15, align 4, !tbaa !7
  %77 = load i32, ptr %5, align 4, !tbaa !7
  %78 = icmp ult i32 %76, %77
  br i1 %78, label %80, label %79

79:                                               ; preds = %75
  call void @llvm.lifetime.end.p0(i64 4, ptr %15) #13
  br label %91

80:                                               ; preds = %75
  %81 = load ptr, ptr %6, align 8, !tbaa !9
  %82 = load ptr, ptr %81, align 8, !tbaa !3
  %83 = load ptr, ptr %12, align 8, !tbaa !9
  store ptr %82, ptr %83, align 8, !tbaa !3
  br label %84

84:                                               ; preds = %80
  %85 = load i32, ptr %15, align 4, !tbaa !7
  %86 = add i32 %85, 1
  store i32 %86, ptr %15, align 4, !tbaa !7
  %87 = load ptr, ptr %6, align 8, !tbaa !9
  %88 = getelementptr inbounds nuw ptr, ptr %87, i32 1
  store ptr %88, ptr %6, align 8, !tbaa !9
  %89 = load ptr, ptr %12, align 8, !tbaa !9
  %90 = getelementptr inbounds nuw ptr, ptr %89, i32 1
  store ptr %90, ptr %12, align 8, !tbaa !9
  br label %75, !llvm.loop !95

91:                                               ; preds = %79
  %92 = load ptr, ptr %10, align 8, !tbaa !3
  call void @llvm.lifetime.end.p0(i64 8, ptr %12) #13
  call void @llvm.lifetime.end.p0(i64 8, ptr %11) #13
  call void @llvm.lifetime.end.p0(i64 8, ptr %10) #13
  call void @llvm.lifetime.end.p0(i64 4, ptr %9) #13
  call void @llvm.lifetime.end.p0(i64 4, ptr %8) #13
  call void @llvm.lifetime.end.p0(i64 4, ptr %7) #13
  ret ptr %92
}