; Function Attrs: mustprogress uwtable
define internal fastcc noalias noundef nonnull ptr @_ZN4leanL8fix_argsEP11lean_objectjPKS1_(ptr noundef %0, i32 noundef %1, ptr noundef readonly captures(none) %2) unnamed_addr #0 {
  %4 = getelementptr i8, ptr %0, i64 16
  %.val = load i16, ptr %4, align 8, !tbaa !20
  %5 = getelementptr i8, ptr %0, i64 18
  %.val40 = load i16, ptr %5, align 2, !tbaa !20
  %6 = zext i16 %.val40 to i32
  %7 = add i32 %1, %6
  %8 = getelementptr i8, ptr %0, i64 8
  %.val42 = load ptr, ptr %8, align 8, !tbaa !15
  %9 = shl i32 %7, 3
  %10 = add i32 %9, 24
  tail call void @lean_inc_heartbeat()
  %11 = zext i32 %10 to i64
  %12 = tail call noalias ptr @mi_malloc_small(i64 noundef %11) #9
  %13 = icmp eq ptr %12, null
  br i1 %13, label %14, label %_ZL18lean_alloc_closurePvjj.exit

14:                                               ; preds = %3
  tail call void @lean_internal_panic_out_of_memory() #10
  unreachable

_ZL18lean_alloc_closurePvjj.exit:                 ; preds = %3
  %15 = getelementptr inbounds nuw i8, ptr %12, i64 4
  %16 = and i32 %10, 65528
  store i32 1, ptr %12, align 4, !tbaa !16
  %17 = or disjoint i32 %16, -184549376
  store i32 %17, ptr %15, align 4
  %18 = getelementptr inbounds nuw i8, ptr %12, i64 8
  store ptr %.val42, ptr %18, align 8, !tbaa !15
  %19 = getelementptr inbounds nuw i8, ptr %12, i64 16
  store i16 %.val, ptr %19, align 8, !tbaa !20
  %20 = trunc i32 %7 to i16
  %21 = getelementptr inbounds nuw i8, ptr %12, i64 18
  store i16 %20, ptr %21, align 2, !tbaa !20
  %22 = getelementptr i8, ptr %0, i64 24
  %23 = getelementptr i8, ptr %12, i64 24
  %.val41 = load i32, ptr %0, align 4, !tbaa !16
  %24 = icmp eq i32 %.val41, 1
  %.not60 = icmp eq i16 %.val40, 0
  br i1 %24, label %.preheader, label %.preheader44

.preheader44:                                     ; preds = %_ZL18lean_alloc_closurePvjj.exit
  br i1 %.not60, label %._crit_edge, label %.lr.ph

.preheader:                                       ; preds = %_ZL18lean_alloc_closurePvjj.exit
  br i1 %.not60, label %._crit_edge52, label %.lr.ph51.preheader

.lr.ph51.preheader:                               ; preds = %.preheader
  %25 = zext i16 %.val40 to i64
  %26 = shl nuw nsw i64 %25, 3
  tail call void @llvm.memcpy.p0.p0.i64(ptr align 8 %23, ptr align 8 %22, i64 %26, i1 false), !tbaa !15
  %27 = add nsw i32 %6, -1
  %28 = zext i32 %27 to i64
  %29 = shl nuw nsw i64 %28, 3
  %30 = getelementptr i8, ptr %12, i64 %29
  %scevgep = getelementptr i8, ptr %30, i64 32
  br label %._crit_edge52

._crit_edge.loopexit:                             ; preds = %_ZL8lean_incP11lean_object.exit
  %.pre = load i32, ptr %0, align 4, !tbaa !16
  br label %._crit_edge

._crit_edge:                                      ; preds = %._crit_edge.loopexit, %.preheader44
  %31 = phi i32 [ %.val41, %.preheader44 ], [ %.pre, %._crit_edge.loopexit ]
  %.036.lcssa = phi ptr [ %23, %.preheader44 ], [ %48, %._crit_edge.loopexit ]
  %32 = icmp sgt i32 %31, 1
  br i1 %32, label %33, label %35, !prof !19

33:                                               ; preds = %._crit_edge
  %34 = add nsw i32 %31, -1
  store i32 %34, ptr %0, align 4, !tbaa !16
  br label %_ZL12lean_dec_refP11lean_object.exit

35:                                               ; preds = %._crit_edge
  %.not.i = icmp eq i32 %31, 0
  br i1 %.not.i, label %_ZL12lean_dec_refP11lean_object.exit, label %36

36:                                               ; preds = %35
  tail call void @lean_dec_ref_cold(ptr noundef nonnull %0)
  br label %_ZL12lean_dec_refP11lean_object.exit

.lr.ph:                                           ; preds = %.preheader44, %_ZL8lean_incP11lean_object.exit
  %.03547 = phi i32 [ %46, %_ZL8lean_incP11lean_object.exit ], [ 0, %.preheader44 ]
  %.03646 = phi ptr [ %48, %_ZL8lean_incP11lean_object.exit ], [ %23, %.preheader44 ]
  %.03745 = phi ptr [ %47, %_ZL8lean_incP11lean_object.exit ], [ %22, %.preheader44 ]
  %37 = load ptr, ptr %.03745, align 8, !tbaa !15
  store ptr %37, ptr %.03646, align 8, !tbaa !15
  %38 = ptrtoint ptr %37 to i64
  %39 = and i64 %38, 1
  %.not = icmp eq i64 %39, 0
  br i1 %.not, label %40, label %_ZL8lean_incP11lean_object.exit

40:                                               ; preds = %.lr.ph
  %.val.i = load i32, ptr %37, align 4, !tbaa !16
  %41 = icmp sgt i32 %.val.i, 0
  br i1 %41, label %42, label %44, !prof !19

42:                                               ; preds = %40
  %43 = add nuw nsw i32 %.val.i, 1
  store i32 %43, ptr %37, align 4, !tbaa !16
  br label %_ZL8lean_incP11lean_object.exit

44:                                               ; preds = %40
  %.not.i43 = icmp eq i32 %.val.i, 0
  br i1 %.not.i43, label %_ZL8lean_incP11lean_object.exit, label %45

45:                                               ; preds = %44
  tail call void @lean_inc_ref_cold(ptr noundef nonnull %37)
  br label %_ZL8lean_incP11lean_object.exit

_ZL8lean_incP11lean_object.exit:                  ; preds = %45, %44, %42, %.lr.ph
  %46 = add nuw nsw i32 %.03547, 1
  %47 = getelementptr inbounds nuw i8, ptr %.03745, i64 8
  %48 = getelementptr inbounds nuw i8, ptr %.03646, i64 8
  %exitcond.not = icmp eq i32 %46, %6
  br i1 %exitcond.not, label %._crit_edge.loopexit, label %.lr.ph, !llvm.loop !74

._crit_edge52:                                    ; preds = %.lr.ph51.preheader, %.preheader
  %.2.lcssa = phi ptr [ %23, %.preheader ], [ %scevgep, %.lr.ph51.preheader ]
  tail call void @mi_free(ptr noundef nonnull %0) #9
  br label %_ZL12lean_dec_refP11lean_object.exit

_ZL12lean_dec_refP11lean_object.exit:             ; preds = %36, %35, %33, %._crit_edge52
  %.1 = phi ptr [ %.2.lcssa, %._crit_edge52 ], [ %.036.lcssa, %33 ], [ %.036.lcssa, %35 ], [ %.036.lcssa, %36 ]
  %.not61 = icmp eq i32 %1, 0
  br i1 %.not61, label %._crit_edge58, label %.lr.ph57

._crit_edge58:                                    ; preds = %.lr.ph57, %_ZL12lean_dec_refP11lean_object.exit
  ret ptr %12

.lr.ph57:                                         ; preds = %_ZL12lean_dec_refP11lean_object.exit, %.lr.ph57
  %.056 = phi i32 [ %50, %.lr.ph57 ], [ 0, %_ZL12lean_dec_refP11lean_object.exit ]
  %.355 = phi ptr [ %52, %.lr.ph57 ], [ %.1, %_ZL12lean_dec_refP11lean_object.exit ]
  %.03954 = phi ptr [ %51, %.lr.ph57 ], [ %2, %_ZL12lean_dec_refP11lean_object.exit ]
  %49 = load ptr, ptr %.03954, align 8, !tbaa !15
  store ptr %49, ptr %.355, align 8, !tbaa !15
  %50 = add nuw i32 %.056, 1
  %51 = getelementptr inbounds nuw i8, ptr %.03954, i64 8
  %52 = getelementptr inbounds nuw i8, ptr %.355, i64 8
  %exitcond63.not = icmp eq i32 %50, %1
  br i1 %exitcond63.not, label %._crit_edge58, label %.lr.ph57, !llvm.loop !75
}